target datalayout = "e-m:e-p270:32:32-p271:32:32-p272:64:64-i64:64-i128:128-f80:128-n8:16:32:64-S128"
target triple = "x86_64-pc-linux-gnu"

%struct.pxr_nc_1_0_ColorSpace = type { %struct.pxr_nc_1_0_ColorSpaceDescriptor, float, float, %struct.pxr_nc_1_0_M33f }
%struct.pxr_nc_1_0_ColorSpaceDescriptor = type { ptr, %struct.pxr_nc_1_0_Chromaticity, %struct.pxr_nc_1_0_Chromaticity, %struct.pxr_nc_1_0_Chromaticity, %struct.pxr_nc_1_0_Chromaticity, float, float }
%struct.pxr_nc_1_0_Chromaticity = type { float, float }
%struct.pxr_nc_1_0_M33f = type { [9 x float] }

; Function Attrs: nounwind uwtable
define void @pxr_nc_1_0_FreeColorSpace(ptr noundef %0) #0 {
  %2 = alloca ptr, align 8
  %3 = alloca i64, align 8
  store ptr %0, ptr %2, align 8
  %4 = load ptr, ptr %2, align 8
  %5 = icmp ne ptr %4, null
  br i1 %5, label %7, label %6

6:                                                ; preds = %1
  br label %27

7:                                                ; preds = %1
  store i64 0, ptr %3, align 8
  br label %8

8:                                                ; preds = %18, %7
  %9 = load i64, ptr %3, align 8
  %10 = icmp ult i64 %9, 18
  br i1 %10, label %11, label %21

11:                                               ; preds = %8
  %12 = load ptr, ptr %2, align 8
  %13 = load i64, ptr %3, align 8
  %14 = getelementptr inbounds [18 x %struct.pxr_nc_1_0_ColorSpace], ptr @_colorSpaces, i64 0, i64 %13
  %15 = icmp eq ptr %12, %14
  br i1 %15, label %16, label %17

16:                                               ; preds = %11
  br label %27

17:                                               ; preds = %11
  br label %18

18:                                               ; preds = %17
  %19 = load i64, ptr %3, align 8
  %20 = add i64 %19, 1
  store i64 %20, ptr %3, align 8
  br label %8, !llvm.loop !7

21:                                               ; preds = %8
  %22 = load ptr, ptr %2, align 8
  %23 = getelementptr inbounds nuw %struct.pxr_nc_1_0_ColorSpace, ptr %22, i32 0, i32 0
  %24 = getelementptr inbounds nuw %struct.pxr_nc_1_0_ColorSpaceDescriptor, ptr %23, i32 0, i32 0
  %25 = load ptr, ptr %24, align 8
  call void @free(ptr noundef %25) #8
  %26 = load ptr, ptr %2, align 8
  call void @free(ptr noundef %26) #8
  br label %27

27:                                               ; preds = %21, %16, %6
  ret void
}