; Function Attrs: nounwind uwtable
define void @pxr_nc_1_0_FreeColorSpace(ptr noundef %0) local_unnamed_addr #14 {
  %.not = icmp eq ptr %0, null
  br i1 %.not, label %.loopexit, label %.preheader

2:                                                ; preds = %.preheader
  %3 = add nuw nsw i64 %.07, 1
  %exitcond.not = icmp eq i64 %3, 18
  br i1 %exitcond.not, label %6, label %.preheader, !llvm.loop !7

.preheader:                                       ; preds = %1, %2
  %.07 = phi i64 [ %3, %2 ], [ 0, %1 ]
  %4 = getelementptr inbounds [18 x %struct.pxr_nc_1_0_ColorSpace], ptr @_colorSpaces, i64 0, i64 %.07
  %5 = icmp eq ptr %0, %4
  br i1 %5, label %.loopexit, label %2

6:                                                ; preds = %2
  %7 = load ptr, ptr %0, align 8
  tail call void @free(ptr noundef %7) #22
  tail call void @free(ptr noundef %0) #22
  br label %.loopexit

.loopexit:                                        ; preds = %.preheader, %1, %6
  ret void
}